; Function Attrs: mustprogress uwtable
define hidden void @_ZN4cvc58internal4prop10PropEngine10removeItesENS0_12NodeTemplateILb0EEERSt6vectorINS0_6theory11SkolemLemmaESaIS7_EE(ptr dead_on_unwind noalias writable sret(%"class.cvc5::internal::TrustNode") align 8 %0, ptr noundef nonnull readonly align 8 captures(none) dereferenceable(416) %1, ptr noundef readonly captures(none) %2, ptr noundef nonnull align 8 dereferenceable(24) %3) local_unnamed_addr #4 align 2 personality ptr @__gxx_personality_v0 {
  %5 = alloca %"class.cvc5::internal::NodeTemplate.484", align 8
  %6 = getelementptr inbounds nuw i8, ptr %1, i64 40
  %7 = load ptr, ptr %6, align 8, !tbaa !272
  %8 = load ptr, ptr %2, align 8, !tbaa !302
  store ptr %8, ptr %5, align 8, !tbaa !302
  call void @_ZN4cvc58internal4prop11TheoryProxy10removeItesENS0_12NodeTemplateILb0EEERSt6vectorINS0_6theory11SkolemLemmaESaIS7_EE(ptr dead_on_unwind writable sret(%"class.cvc5::internal::TrustNode") align 8 %0, ptr noundef nonnull align 8 dereferenceable(521) %7, ptr noundef nonnull %5, ptr noundef nonnull align 8 dereferenceable(24) %3)
  ret void
}